target datalayout = "e-m:e-p270:32:32-p271:32:32-p272:64:64-i64:64-i128:128-f80:128-n8:16:32:64-S128"
target triple = "x86_64-pc-linux-gnu"

%struct.cCLLog_timeStamp_t = type { i64, i16 }
%struct.cCLLog_message_t = type { %struct.cCLLog_timeStamp_t, i32, i32, i32, i8, [8 x i8] }

@.str.55 = private unnamed_addr constant [29 x i8] c"cllog: ID value is not valid\00", align 1

; Function Attrs: null_pointer_is_valid sspstrong uwtable
define internal zeroext i1 @parseFieldID(ptr noundef %0, ptr noundef %1, ptr noundef %2, ptr noundef %3, ptr noundef %4) #0 {
  %6 = alloca i1, align 1
  %7 = alloca ptr, align 8
  %8 = alloca ptr, align 8
  %9 = alloca ptr, align 8
  %10 = alloca ptr, align 8
  %11 = alloca ptr, align 8
  %12 = alloca i32, align 4
  %13 = alloca i32, align 4
  store ptr %0, ptr %7, align 8
  store ptr %1, ptr %8, align 8
  store ptr %2, ptr %9, align 8
  store ptr %3, ptr %10, align 8
  store ptr %4, ptr %11, align 8
  call void @llvm.lifetime.start.p0(i64 4, ptr %12) #13
  %14 = load ptr, ptr %8, align 8
  %15 = call zeroext i1 @ws_hexstrtou32(ptr noundef %14, ptr noundef null, ptr noundef %12)
  br i1 %15, label %20, label %16

16:                                               ; preds = %5
  %17 = load ptr, ptr %10, align 8
  store i32 -13, ptr %17, align 4
  %18 = call noalias ptr (ptr, ...) @g_strdup_printf(ptr noundef @.str.55)
  %19 = load ptr, ptr %11, align 8
  store ptr %18, ptr %19, align 8
  store i1 false, ptr %6, align 1
  store i32 1, ptr %13, align 4
  br label %24

20:                                               ; preds = %5
  %21 = load i32, ptr %12, align 4
  %22 = load ptr, ptr %9, align 8
  %23 = getelementptr inbounds nuw %struct.cCLLog_message_t, ptr %22, i32 0, i32 3
  store i32 %21, ptr %23, align 8
  store i1 true, ptr %6, align 1
  store i32 1, ptr %13, align 4
  br label %24

24:                                               ; preds = %20, %16
  call void @llvm.lifetime.end.p0(i64 4, ptr %12) #13
  %25 = load i1, ptr %6, align 1
  ret i1 %25
}