; Function Attrs: null_pointer_is_valid sspstrong uwtable
define internal noundef zeroext i1 @parseFieldID(ptr readnone captures(none) %0, ptr noundef %1, ptr noundef writeonly captures(none) %2, ptr noundef writeonly captures(none) %3, ptr noundef writeonly captures(none) %4) #0 {
  %6 = alloca i32, align 4
  call void @llvm.lifetime.start.p0(i64 4, ptr nonnull %6) #10
  %7 = call zeroext i1 @ws_hexstrtou32(ptr noundef %1, ptr noundef null, ptr noundef nonnull %6)
  br i1 %7, label %10, label %8

8:                                                ; preds = %5
  store i32 -13, ptr %3, align 4
  %9 = call noalias ptr (ptr, ...) @g_strdup_printf(ptr noundef nonnull @.str.55)
  store ptr %9, ptr %4, align 8
  br label %13

10:                                               ; preds = %5
  %11 = load i32, ptr %6, align 4
  %12 = getelementptr inbounds nuw i8, ptr %2, i64 24
  store i32 %11, ptr %12, align 8
  br label %13

13:                                               ; preds = %10, %8
  call void @llvm.lifetime.end.p0(i64 4, ptr nonnull %6) #10
  ret i1 %7
}